target datalayout = "e-m:e-p270:32:32-p271:32:32-p272:64:64-i64:64-i128:128-f80:128-n8:16:32:64-S128"
target triple = "x86_64-pc-linux-gnu"

; Function Attrs: mustprogress uwtable
define internal noundef i32 @_ZL9math_signP9lua_State(ptr noundef %0) #2 {
  %2 = alloca ptr, align 8
  %3 = alloca double, align 8
  store ptr %0, ptr %2, align 8, !tbaa !20
  call void @llvm.lifetime.start.p0(i64 8, ptr %3) #11
  %4 = load ptr, ptr %2, align 8, !tbaa !20
  %5 = call noundef double @_Z16luaL_checknumberP9lua_Statei(ptr noundef %4, i32 noundef 1)
  store double %5, ptr %3, align 8, !tbaa !37
  %6 = load ptr, ptr %2, align 8, !tbaa !20
  %7 = load double, ptr %3, align 8, !tbaa !37
  %8 = fcmp ogt double %7, 0.000000e+00
  br i1 %8, label %9, label %10

9:                                                ; preds = %1
  br label %14

10:                                               ; preds = %1
  %11 = load double, ptr %3, align 8, !tbaa !37
  %12 = fcmp olt double %11, 0.000000e+00
  %13 = select i1 %12, double -1.000000e+00, double 0.000000e+00
  br label %14

14:                                               ; preds = %10, %9
  %15 = phi double [ 1.000000e+00, %9 ], [ %13, %10 ]
  call void @_Z14lua_pushnumberP9lua_Stated(ptr noundef %6, double noundef %15)
  call void @llvm.lifetime.end.p0(i64 8, ptr %3) #11
  ret i32 1
}