; Function Attrs: mustprogress uwtable
define internal noundef i32 @_ZL9math_signP9lua_State(ptr noundef %0) #0 {
  %2 = tail call noundef double @_Z16luaL_checknumberP9lua_Statei(ptr noundef %0, i32 noundef 1)
  %3 = fcmp ogt double %2, 0.000000e+00
  %4 = fcmp olt double %2, 0.000000e+00
  %5 = select i1 %4, double -1.000000e+00, double 0.000000e+00
  %6 = select i1 %3, double 1.000000e+00, double %5
  tail call void @_Z14lua_pushnumberP9lua_Stated(ptr noundef %0, double noundef %6)
  ret i32 1
}